; Function Attrs: mustprogress uwtable
define hidden void @_ZNK3smt15theory_datatype11display_varERSoi(ptr nocapture noundef nonnull readonly align 8 dereferenceable(728) %this, ptr noundef nonnull align 8 dereferenceable(8) %out, i32 noundef %v) local_unnamed_addr #3 align 2 {
entry:
  %ref.tmp = alloca %"struct.smt::enode_pp", align 8
  %m_var_data = getelementptr inbounds i8, ptr %this, i64 496
  %0 = load ptr, ptr %m_var_data, align 8
  %idxprom.i = zext i32 %v to i64
  %arrayidx.i = getelementptr inbounds ptr, ptr %0, i64 %idxprom.i
  %1 = load ptr, ptr %arrayidx.i, align 8
  %call2 = tail call noundef nonnull align 8 dereferenceable(8) ptr @_ZStlsISt11char_traitsIcEERSt13basic_ostreamIcT_ES5_PKc(ptr noundef nonnull align 8 dereferenceable(8) %out, ptr noundef nonnull @.str.17)
  %call3 = tail call noundef nonnull align 8 dereferenceable(8) ptr @_ZNSolsEi(ptr noundef nonnull align 8 dereferenceable(8) %call2, i32 noundef %v)
  %call4 = tail call noundef nonnull align 8 dereferenceable(8) ptr @_ZStlsISt11char_traitsIcEERSt13basic_ostreamIcT_ES5_PKc(ptr noundef nonnull align 8 dereferenceable(8) %call3, ptr noundef nonnull @.str.18)
  %m_var2enode.i = getelementptr inbounds i8, ptr %this, i64 32
  %2 = load ptr, ptr %m_var2enode.i, align 8
  %arrayidx.i.i = getelementptr inbounds ptr, ptr %2, i64 %idxprom.i
  %3 = load ptr, ptr %arrayidx.i.i, align 8
  %4 = load ptr, ptr %3, align 8
  %5 = load i32, ptr %4, align 4
  %call7 = tail call noundef nonnull align 8 dereferenceable(8) ptr @_ZNSolsEj(ptr noundef nonnull align 8 dereferenceable(8) %call4, i32 noundef %5)
  %call8 = tail call noundef nonnull align 8 dereferenceable(8) ptr @_ZStlsISt11char_traitsIcEERSt13basic_ostreamIcT_ES5_PKc(ptr noundef nonnull align 8 dereferenceable(8) %call7, ptr noundef nonnull @.str.19)
  %m_find.i = getelementptr inbounds i8, ptr %this, i64 520
  %6 = load ptr, ptr %m_find.i, align 8
  br label %while.body.i

while.body.i:                                     ; preds = %while.body.i, %entry
  %v.addr.0.i = phi i32 [ %v, %entry ], [ %7, %while.body.i ]
  %idxprom.i.i8 = zext i32 %v.addr.0.i to i64
  %arrayidx.i.i9 = getelementptr inbounds i32, ptr %6, i64 %idxprom.i.i8
  %7 = load i32, ptr %arrayidx.i.i9, align 4
  %cmp.i = icmp eq i32 %7, %v.addr.0.i
  br i1 %cmp.i, label %_ZNK10union_findIN3smt15theory_datatypeES1_E4findEj.exit, label %while.body.i, !llvm.loop !24

_ZNK10union_findIN3smt15theory_datatypeES1_E4findEj.exit: ; preds = %while.body.i
  %call10 = tail call noundef nonnull align 8 dereferenceable(8) ptr @_ZNSolsEj(ptr noundef nonnull align 8 dereferenceable(8) %call8, i32 noundef %v.addr.0.i)
  %call11 = tail call noundef nonnull align 8 dereferenceable(8) ptr @_ZStlsISt11char_traitsIcEERSt13basic_ostreamIcT_ES5_PKc(ptr noundef nonnull align 8 dereferenceable(8) %call10, ptr noundef nonnull @.str.20)
  %m_constructor = getelementptr inbounds i8, ptr %1, i64 8
  %8 = load ptr, ptr %m_constructor, align 8
  %tobool.not = icmp eq ptr %8, null
  br i1 %tobool.not, label %if.else, label %if.then

if.then:                                          ; preds = %_ZNK10union_findIN3smt15theory_datatypeES1_E4findEj.exit
  %ctx = getelementptr inbounds i8, ptr %this, i64 16
  %9 = load ptr, ptr %ctx, align 8
  store ptr %9, ptr %ref.tmp, align 8
  %n3.i = getelementptr inbounds i8, ptr %ref.tmp, i64 8
  store ptr %8, ptr %n3.i, align 8
  %call13 = call noundef nonnull align 8 dereferenceable(8) ptr @_ZN3smtlsERSoRKNS_8enode_ppE(ptr noundef nonnull align 8 dereferenceable(8) %out, ptr noundef nonnull align 8 dereferenceable(16) %ref.tmp)
  br label %if.end

if.else:                                          ; preds = %_ZNK10union_findIN3smt15theory_datatypeES1_E4findEj.exit
  %call14 = tail call noundef nonnull align 8 dereferenceable(8) ptr @_ZStlsISt11char_traitsIcEERSt13basic_ostreamIcT_ES5_PKc(ptr noundef nonnull align 8 dereferenceable(8) %out, ptr noundef nonnull @.str.21)
  br label %if.end

if.end:                                           ; preds = %if.else, %if.then
  %call15 = call noundef nonnull align 8 dereferenceable(8) ptr @_ZStlsISt11char_traitsIcEERSt13basic_ostreamIcT_ES5_PKc(ptr noundef nonnull align 8 dereferenceable(8) %out, ptr noundef nonnull @.str.22)
  ret void
}